; Function Attrs: mustprogress nofree norecurse nosync nounwind willreturn memory(argmem: read) uwtable
define hidden noundef i32 @_ZN11upolynomial7manager15descartes_boundEjPK3mpz(ptr noundef nonnull readnone align 8 captures(none) dereferenceable(312) %0, i32 noundef %1, ptr noundef readonly captures(none) %2) local_unnamed_addr #4 align 2 {
  %.not.i = icmp eq i32 %1, 0
  br i1 %.not.i, label %_ZN11upolynomial7manager12sign_changesEjPK3mpz.exit, label %.lr.ph.preheader.i

.lr.ph.preheader.i:                               ; preds = %3
  %wide.trip.count.i = zext i32 %1 to i64
  br label %.lr.ph.i

.lr.ph.i:                                         ; preds = %11, %.lr.ph.preheader.i
  %indvars.iv.i = phi i64 [ 0, %.lr.ph.preheader.i ], [ %indvars.iv.next.i, %11 ]
  %.019.i = phi i32 [ 0, %.lr.ph.preheader.i ], [ %.1.i, %11 ]
  %.01417.i = phi i32 [ 0, %.lr.ph.preheader.i ], [ %.115.i, %11 ]
  %4 = getelementptr inbounds nuw %class.mpz, ptr %2, i64 %indvars.iv.i
  %5 = load i32, ptr %4, align 8, !tbaa !8
  %6 = icmp eq i32 %5, 0
  br i1 %6, label %11, label %7

7:                                                ; preds = %.lr.ph.i
  %.inv.i.i = icmp slt i32 %5, 1
  %..i.i = select i1 %.inv.i.i, i32 -1, i32 1
  %8 = icmp ne i32 %..i.i, %.01417.i
  %9 = icmp ne i32 %.01417.i, 0
  %or.cond.i = and i1 %9, %8
  %10 = zext i1 %or.cond.i to i32
  %spec.select.i = add i32 %.019.i, %10
  br label %11

11:                                               ; preds = %7, %.lr.ph.i
  %.115.i = phi i32 [ %..i.i, %7 ], [ %.01417.i, %.lr.ph.i ]
  %.1.i = phi i32 [ %spec.select.i, %7 ], [ %.019.i, %.lr.ph.i ]
  %indvars.iv.next.i = add nuw nsw i64 %indvars.iv.i, 1
  %exitcond.not.i = icmp eq i64 %indvars.iv.next.i, %wide.trip.count.i
  br i1 %exitcond.not.i, label %_ZN11upolynomial7manager12sign_changesEjPK3mpz.exit, label %.lr.ph.i, !llvm.loop !149

_ZN11upolynomial7manager12sign_changesEjPK3mpz.exit: ; preds = %11, %3
  %.0.lcssa.i = phi i32 [ 0, %3 ], [ %.1.i, %11 ]
  ret i32 %.0.lcssa.i
}